target datalayout = "e-m:e-p270:32:32-p271:32:32-p272:64:64-i64:64-i128:128-f80:128-n8:16:32:64-S128"
target triple = "x86_64-pc-linux-gnu"

%"class.std::__shared_count" = type { ptr }
%"class.std::shared_ptr.4" = type { %"class.std::__shared_ptr.5" }
%"class.std::__shared_ptr.5" = type { ptr, %"class.std::__shared_count" }
%"class.dropbox::oxygen::nn.3" = type { %"class.std::shared_ptr.4" }
%"struct.osgeo::proj::util::BaseObjectNNPtr" = type { %"class.dropbox::oxygen::nn.3" }
%"class.dropbox::oxygen::nn.155" = type { %"class.std::shared_ptr.156" }
%"class.std::shared_ptr.156" = type { %"class.std::__shared_ptr.157" }
%"class.std::__shared_ptr.157" = type { ptr, %"class.std::__shared_count" }
%"class.osgeo::proj::util::PropertyMap" = type { %"class.std::unique_ptr.379" }
%"class.std::unique_ptr.379" = type { %"struct.std::__uniq_ptr_data.380" }
%"struct.std::__uniq_ptr_data.380" = type { %"class.std::__uniq_ptr_impl.381" }
%"class.std::__uniq_ptr_impl.381" = type { %"class.std::tuple.382" }
%"class.std::tuple.382" = type { %"struct.std::_Tuple_impl.383" }
%"struct.std::_Tuple_impl.383" = type { %"struct.std::_Head_base.386" }
%"struct.std::_Head_base.386" = type { ptr }
%"class.std::_Sp_counted_base" = type { ptr, i32, i32 }

@_ZTISt9exception = external constant ptr
@__FUNCTION__.proj_create_conversion_utm = private unnamed_addr constant [27 x i8] c"proj_create_conversion_utm\00", align 1
@__libc_single_threaded = external global i8, align 1

; Function Attrs: mustprogress uwtable
define linkonce_odr void @_ZNSt16_Sp_counted_baseILN9__gnu_cxx12_Lock_policyE2EE15_M_add_ref_copyEv(ptr noundef nonnull align 8 dereferenceable(16) %0) #2 comdat align 2 {
  %2 = alloca ptr, align 8
  %3 = alloca i32, align 4
  %4 = alloca i32, align 4
  %5 = alloca i32, align 4
  %6 = alloca ptr, align 8
  %7 = alloca i32, align 4
  %8 = alloca ptr, align 8
  %9 = alloca i32, align 4
  %10 = alloca ptr, align 8
  store ptr %0, ptr %10, align 8
  %11 = load ptr, ptr %10, align 8
  %12 = getelementptr inbounds %"class.std::_Sp_counted_base", ptr %11, i32 0, i32 1
  store ptr %12, ptr %8, align 8
  store i32 1, ptr %9, align 4
  %13 = load i8, ptr @__libc_single_threaded, align 1
  %14 = icmp ne i8 %13, 0
  br i1 %14, label %15, label %22

15:                                               ; preds = %1
  %16 = load ptr, ptr %8, align 8
  %17 = load i32, ptr %9, align 4
  store ptr %16, ptr %6, align 8
  store i32 %17, ptr %7, align 4
  %18 = load i32, ptr %7, align 4
  %19 = load ptr, ptr %6, align 8
  %20 = load i32, ptr %19, align 4
  %21 = add nsw i32 %20, %18
  store i32 %21, ptr %19, align 4
  br label %29

22:                                               ; preds = %1
  %23 = load ptr, ptr %8, align 8
  %24 = load i32, ptr %9, align 4
  store ptr %23, ptr %2, align 8
  store i32 %24, ptr %3, align 4
  %25 = load ptr, ptr %2, align 8
  %26 = load i32, ptr %3, align 4
  store i32 %26, ptr %4, align 4
  %27 = load i32, ptr %4, align 4
  %28 = atomicrmw volatile add ptr %25, i32 %27 acq_rel, align 4
  store i32 %28, ptr %5, align 4
  br label %29

29:                                               ; preds = %22, %15
  ret void
}

; Function Attrs: mustprogress nounwind uwtable
define linkonce_odr void @_ZNSt14__shared_countILN9__gnu_cxx12_Lock_policyE2EEC2ERKS2_(ptr noundef nonnull align 8 dereferenceable(8) %0, ptr noundef nonnull align 8 dereferenceable(8) %1) unnamed_addr #0 comdat align 2 personality ptr @__gxx_personality_v0 {
  %3 = alloca ptr, align 8
  %4 = alloca ptr, align 8
  store ptr %0, ptr %3, align 8
  store ptr %1, ptr %4, align 8
  %5 = load ptr, ptr %3, align 8
  %6 = getelementptr inbounds %"class.std::__shared_count", ptr %5, i32 0, i32 0
  %7 = load ptr, ptr %4, align 8
  %8 = getelementptr inbounds %"class.std::__shared_count", ptr %7, i32 0, i32 0
  %9 = load ptr, ptr %8, align 8
  store ptr %9, ptr %6, align 8
  %10 = getelementptr inbounds %"class.std::__shared_count", ptr %5, i32 0, i32 0
  %11 = load ptr, ptr %10, align 8
  %12 = icmp ne ptr %11, null
  br i1 %12, label %13, label %17

13:                                               ; preds = %2
  %14 = getelementptr inbounds %"class.std::__shared_count", ptr %5, i32 0, i32 0
  %15 = load ptr, ptr %14, align 8
  invoke void @_ZNSt16_Sp_counted_baseILN9__gnu_cxx12_Lock_policyE2EE15_M_add_ref_copyEv(ptr noundef nonnull align 8 dereferenceable(16) %15)
          to label %16 unwind label %18

16:                                               ; preds = %13
  br label %17

17:                                               ; preds = %16, %2
  ret void

18:                                               ; preds = %13
  %19 = landingpad { ptr, i32 }
          catch ptr null
  %20 = extractvalue { ptr, i32 } %19, 0
  call void @__clang_call_terminate(ptr %20) #21
  unreachable
}

; Function Attrs: mustprogress nounwind uwtable
define linkonce_odr void @_ZNSt12__shared_ptrIN5osgeo4proj4util10BaseObjectELN9__gnu_cxx12_Lock_policyE2EEC2INS1_9operation10ConversionEvEERKS_IT_LS5_2EE(ptr noundef nonnull align 8 dereferenceable(16) %0, ptr noundef nonnull align 8 dereferenceable(16) %1) unnamed_addr #0 comdat align 2 {
  %3 = alloca ptr, align 8
  %4 = alloca ptr, align 8
  store ptr %0, ptr %3, align 8
  store ptr %1, ptr %4, align 8
  %5 = load ptr, ptr %3, align 8
  %6 = getelementptr inbounds %"class.std::__shared_ptr.5", ptr %5, i32 0, i32 0
  %7 = load ptr, ptr %4, align 8
  %8 = getelementptr inbounds %"class.std::__shared_ptr.157", ptr %7, i32 0, i32 0
  %9 = load ptr, ptr %8, align 8
  %10 = icmp eq ptr %9, null
  br i1 %10, label %16, label %11

11:                                               ; preds = %2
  %12 = load ptr, ptr %9, align 8
  %13 = getelementptr i8, ptr %12, i64 -24
  %14 = load i64, ptr %13, align 8
  %15 = getelementptr inbounds i8, ptr %9, i64 %14
  br label %16

16:                                               ; preds = %11, %2
  %17 = phi ptr [ %15, %11 ], [ null, %2 ]
  store ptr %17, ptr %6, align 8
  %18 = getelementptr inbounds %"class.std::__shared_ptr.5", ptr %5, i32 0, i32 1
  %19 = load ptr, ptr %4, align 8
  %20 = getelementptr inbounds %"class.std::__shared_ptr.157", ptr %19, i32 0, i32 1
  call void @_ZNSt14__shared_countILN9__gnu_cxx12_Lock_policyE2EEC2ERKS2_(ptr noundef nonnull align 8 dereferenceable(8) %18, ptr noundef nonnull align 8 dereferenceable(8) %20) #19
  ret void
}

; Function Attrs: mustprogress nounwind uwtable
define linkonce_odr void @_ZNSt10shared_ptrIN5osgeo4proj4util10BaseObjectEEC2INS1_9operation10ConversionEvEERKS_IT_E(ptr noundef nonnull align 8 dereferenceable(16) %0, ptr noundef nonnull align 8 dereferenceable(16) %1) unnamed_addr #0 comdat align 2 {
  %3 = alloca ptr, align 8
  %4 = alloca ptr, align 8
  store ptr %0, ptr %3, align 8
  store ptr %1, ptr %4, align 8
  %5 = load ptr, ptr %3, align 8
  %6 = load ptr, ptr %4, align 8
  call void @_ZNSt12__shared_ptrIN5osgeo4proj4util10BaseObjectELN9__gnu_cxx12_Lock_policyE2EEC2INS1_9operation10ConversionEvEERKS_IT_LS5_2EE(ptr noundef nonnull align 8 dereferenceable(16) %5, ptr noundef nonnull align 8 dereferenceable(16) %6) #19
  ret void
}

; Function Attrs: mustprogress nounwind uwtable
define linkonce_odr hidden noundef nonnull align 8 dereferenceable(16) ptr @_ZNKR7dropbox6oxygen2nnISt10shared_ptrIN5osgeo4proj9operation10ConversionEEEcvRKS7_Ev(ptr noundef nonnull align 8 dereferenceable(16) %0) #0 comdat align 2 {
  %2 = alloca ptr, align 8
  store ptr %0, ptr %2, align 8
  %3 = load ptr, ptr %2, align 8
  %4 = getelementptr inbounds %"class.dropbox::oxygen::nn.155", ptr %3, i32 0, i32 0
  ret ptr %4
}

; Function Attrs: mustprogress uwtable
define linkonce_odr hidden void @_ZN7dropbox6oxygen2nnISt10shared_ptrIN5osgeo4proj4util10BaseObjectEEEC2IS2_INS4_9operation10ConversionEETnNSt9enable_ifIXsr3std14is_convertibleIT_S7_EE5valueEiE4typeELi0EEERKNS1_ISE_EE(ptr noundef nonnull align 8 dereferenceable(16) %0, ptr noundef nonnull align 8 dereferenceable(16) %1) unnamed_addr #2 comdat align 2 {
  %3 = alloca ptr, align 8
  %4 = alloca ptr, align 8
  store ptr %0, ptr %3, align 8
  store ptr %1, ptr %4, align 8
  %5 = load ptr, ptr %3, align 8
  %6 = getelementptr inbounds %"class.dropbox::oxygen::nn.3", ptr %5, i32 0, i32 0
  %7 = load ptr, ptr %4, align 8
  %8 = call noundef nonnull align 8 dereferenceable(16) ptr @_ZNKR7dropbox6oxygen2nnISt10shared_ptrIN5osgeo4proj9operation10ConversionEEEcvRKS7_Ev(ptr noundef nonnull align 8 dereferenceable(16) %7)
  call void @_ZNSt10shared_ptrIN5osgeo4proj4util10BaseObjectEEC2INS1_9operation10ConversionEvEERKS_IT_E(ptr noundef nonnull align 8 dereferenceable(16) %6, ptr noundef nonnull align 8 dereferenceable(16) %8) #19
  ret void
}

; Function Attrs: mustprogress uwtable
define linkonce_odr hidden void @_ZN5osgeo4proj4util15BaseObjectNNPtrC2INS0_9operation10ConversionEEERKN7dropbox6oxygen2nnISt10shared_ptrIT_EEE(ptr noundef nonnull align 8 dereferenceable(16) %0, ptr noundef nonnull align 8 dereferenceable(16) %1) unnamed_addr #2 comdat align 2 {
  %3 = alloca ptr, align 8
  %4 = alloca ptr, align 8
  store ptr %0, ptr %3, align 8
  store ptr %1, ptr %4, align 8
  %5 = load ptr, ptr %3, align 8
  %6 = load ptr, ptr %4, align 8
  call void @_ZN7dropbox6oxygen2nnISt10shared_ptrIN5osgeo4proj4util10BaseObjectEEEC2IS2_INS4_9operation10ConversionEETnNSt9enable_ifIXsr3std14is_convertibleIT_S7_EE5valueEiE4typeELi0EEERKNS1_ISE_EE(ptr noundef nonnull align 8 dereferenceable(16) %5, ptr noundef nonnull align 8 dereferenceable(16) %6)
  ret void
}

; Function Attrs: mustprogress uwtable
define internal noundef ptr @_ZL22proj_create_conversionP6pj_ctxRKN7dropbox6oxygen2nnISt10shared_ptrIN5osgeo4proj9operation10ConversionEEEE(ptr noundef %0, ptr noundef nonnull align 8 dereferenceable(16) %1) #2 personality ptr @__gxx_personality_v0 {
  %3 = alloca ptr, align 8
  %4 = alloca ptr, align 8
  %5 = alloca %"struct.osgeo::proj::util::BaseObjectNNPtr", align 8
  %6 = alloca ptr, align 8
  %7 = alloca i32, align 4
  store ptr %0, ptr %3, align 8
  store ptr %1, ptr %4, align 8
  %8 = load ptr, ptr %3, align 8
  %9 = load ptr, ptr %4, align 8
  call void @_ZN5osgeo4proj4util15BaseObjectNNPtrC2INS0_9operation10ConversionEEERKN7dropbox6oxygen2nnISt10shared_ptrIT_EEE(ptr noundef nonnull align 8 dereferenceable(16) %5, ptr noundef nonnull align 8 dereferenceable(16) %9)
  %10 = invoke noundef ptr @_Z13pj_obj_createP6pj_ctxRKN5osgeo4proj4util15BaseObjectNNPtrE(ptr noundef %8, ptr noundef nonnull align 8 dereferenceable(16) %5)
          to label %11 unwind label %12

11:                                               ; preds = %2
  call void @_ZN5osgeo4proj4util15BaseObjectNNPtrD1Ev(ptr noundef nonnull align 8 dereferenceable(16) %5) #19
  ret ptr %10

12:                                               ; preds = %2
  %13 = landingpad { ptr, i32 }
          cleanup
  %14 = extractvalue { ptr, i32 } %13, 0
  store ptr %14, ptr %6, align 8
  %15 = extractvalue { ptr, i32 } %13, 1
  store i32 %15, ptr %7, align 4
  call void @_ZN5osgeo4proj4util15BaseObjectNNPtrD1Ev(ptr noundef nonnull align 8 dereferenceable(16) %5) #19
  br label %16

16:                                               ; preds = %12
  %17 = load ptr, ptr %6, align 8
  %18 = load i32, ptr %7, align 4
  %19 = insertvalue { ptr, i32 } poison, ptr %17, 0
  %20 = insertvalue { ptr, i32 } %19, i32 %18, 1
  resume { ptr, i32 } %20
}

; Function Attrs: mustprogress uwtable
define ptr @proj_create_conversion_utm(ptr noundef %0, i32 noundef %1, i32 noundef %2) #2 personality ptr @__gxx_personality_v0 {
  %4 = alloca ptr, align 8
  %5 = alloca ptr, align 8
  %6 = alloca i32, align 4
  %7 = alloca i32, align 4
  %8 = alloca %"class.dropbox::oxygen::nn.155", align 8
  %9 = alloca %"class.osgeo::proj::util::PropertyMap", align 8
  %10 = alloca ptr, align 8
  %11 = alloca i32, align 4
  %12 = alloca ptr, align 8
  store ptr %0, ptr %5, align 8
  store i32 %1, ptr %6, align 4
  store i32 %2, ptr %7, align 4
  br label %13

13:                                               ; preds = %3
  %14 = load ptr, ptr %5, align 8
  %15 = icmp eq ptr %14, null
  br i1 %15, label %16, label %18

16:                                               ; preds = %13
  %17 = call noundef ptr @_Z18pj_get_default_ctxv()
  store ptr %17, ptr %5, align 8
  br label %18

18:                                               ; preds = %16, %13
  br label %19

19:                                               ; preds = %18
  invoke void @_ZN5osgeo4proj4util11PropertyMapC1Ev(ptr noundef nonnull align 8 dereferenceable(8) %9)
          to label %20 unwind label %28

20:                                               ; preds = %19
  %21 = load i32, ptr %6, align 4
  %22 = load i32, ptr %7, align 4
  %23 = icmp ne i32 %22, 0
  invoke void @_ZN5osgeo4proj9operation10Conversion9createUTMERKNS0_4util11PropertyMapEib(ptr dead_on_unwind writable sret(%"class.dropbox::oxygen::nn.155") align 8 %8, ptr noundef nonnull align 8 dereferenceable(8) %9, i32 noundef %21, i1 noundef zeroext %23)
          to label %24 unwind label %32

24:                                               ; preds = %20
  call void @_ZN5osgeo4proj4util11PropertyMapD1Ev(ptr noundef nonnull align 8 dereferenceable(8) %9) #19
  %25 = load ptr, ptr %5, align 8
  %26 = invoke noundef ptr @_ZL22proj_create_conversionP6pj_ctxRKN7dropbox6oxygen2nnISt10shared_ptrIN5osgeo4proj9operation10ConversionEEEE(ptr noundef %25, ptr noundef nonnull align 8 dereferenceable(16) %8)
          to label %27 unwind label %36

27:                                               ; preds = %24
  store ptr %26, ptr %4, align 8
  call void @_ZN7dropbox6oxygen2nnISt10shared_ptrIN5osgeo4proj9operation10ConversionEEED2Ev(ptr noundef nonnull align 8 dereferenceable(16) %8) #19
  br label %60

28:                                               ; preds = %19
  %29 = landingpad { ptr, i32 }
          catch ptr @_ZTISt9exception
  %30 = extractvalue { ptr, i32 } %29, 0
  store ptr %30, ptr %10, align 8
  %31 = extractvalue { ptr, i32 } %29, 1
  store i32 %31, ptr %11, align 4
  br label %40

32:                                               ; preds = %20
  %33 = landingpad { ptr, i32 }
          cleanup
          catch ptr @_ZTISt9exception
  %34 = extractvalue { ptr, i32 } %33, 0
  store ptr %34, ptr %10, align 8
  %35 = extractvalue { ptr, i32 } %33, 1
  store i32 %35, ptr %11, align 4
  call void @_ZN5osgeo4proj4util11PropertyMapD1Ev(ptr noundef nonnull align 8 dereferenceable(8) %9) #19
  br label %40

36:                                               ; preds = %24
  %37 = landingpad { ptr, i32 }
          cleanup
          catch ptr @_ZTISt9exception
  %38 = extractvalue { ptr, i32 } %37, 0
  store ptr %38, ptr %10, align 8
  %39 = extractvalue { ptr, i32 } %37, 1
  store i32 %39, ptr %11, align 4
  call void @_ZN7dropbox6oxygen2nnISt10shared_ptrIN5osgeo4proj9operation10ConversionEEED2Ev(ptr noundef nonnull align 8 dereferenceable(16) %8) #19
  br label %40

40:                                               ; preds = %36, %32, %28
  %41 = load i32, ptr %11, align 4
  %42 = call i32 @llvm.eh.typeid.for(ptr @_ZTISt9exception) #19
  %43 = icmp eq i32 %41, %42
  br i1 %43, label %44, label %62

44:                                               ; preds = %40
  %45 = load ptr, ptr %10, align 8
  %46 = call ptr @__cxa_begin_catch(ptr %45) #19
  store ptr %46, ptr %12, align 8
  %47 = load ptr, ptr %5, align 8
  %48 = load ptr, ptr %12, align 8
  %49 = load ptr, ptr %48, align 8
  %50 = getelementptr inbounds ptr, ptr %49, i64 2
  %51 = load ptr, ptr %50, align 8
  %52 = call noundef ptr %51(ptr noundef nonnull align 8 dereferenceable(8) %48) #19
  invoke void @_ZL14proj_log_errorP6pj_ctxPKcS2_(ptr noundef %47, ptr noundef @__FUNCTION__.proj_create_conversion_utm, ptr noundef %52)
          to label %53 unwind label %55

53:                                               ; preds = %44
  call void @__cxa_end_catch()
  br label %54

54:                                               ; preds = %53
  store ptr null, ptr %4, align 8
  br label %60

55:                                               ; preds = %44
  %56 = landingpad { ptr, i32 }
          cleanup
  %57 = extractvalue { ptr, i32 } %56, 0
  store ptr %57, ptr %10, align 8
  %58 = extractvalue { ptr, i32 } %56, 1
  store i32 %58, ptr %11, align 4
  invoke void @__cxa_end_catch()
          to label %59 unwind label %67

59:                                               ; preds = %55
  br label %62

60:                                               ; preds = %54, %27
  %61 = load ptr, ptr %4, align 8
  ret ptr %61

62:                                               ; preds = %59, %40
  %63 = load ptr, ptr %10, align 8
  %64 = load i32, ptr %11, align 4
  %65 = insertvalue { ptr, i32 } poison, ptr %63, 0
  %66 = insertvalue { ptr, i32 } %65, i32 %64, 1
  resume { ptr, i32 } %66

67:                                               ; preds = %55
  %68 = landingpad { ptr, i32 }
          catch ptr null
  %69 = extractvalue { ptr, i32 } %68, 0
  call void @__clang_call_terminate(ptr %69) #21
  unreachable
}