; Function Attrs: mustprogress uwtable
define noundef ptr @proj_create_conversion_utm(ptr noundef %0, i32 noundef %1, i32 noundef %2) local_unnamed_addr #2 personality ptr @__gxx_personality_v0 {
  %4 = alloca %"struct.osgeo::proj::util::BaseObjectNNPtr", align 8
  %5 = alloca %"class.dropbox::oxygen::nn.155", align 8
  %6 = alloca %"class.osgeo::proj::util::PropertyMap", align 8
  %7 = icmp eq ptr %0, null
  br i1 %7, label %8, label %10

8:                                                ; preds = %3
  %9 = tail call noundef ptr @_Z18pj_get_default_ctxv()
  br label %10

10:                                               ; preds = %3, %8
  %.013 = phi ptr [ %9, %8 ], [ %0, %3 ]
  invoke void @_ZN5osgeo4proj4util11PropertyMapC1Ev(ptr noundef nonnull align 8 dereferenceable(8) %6)
          to label %11 unwind label %70

11:                                               ; preds = %10
  %12 = icmp ne i32 %2, 0
  invoke void @_ZN5osgeo4proj9operation10Conversion9createUTMERKNS0_4util11PropertyMapEib(ptr dead_on_unwind nonnull writable sret(%"class.dropbox::oxygen::nn.155") align 8 %5, ptr noundef nonnull align 8 dereferenceable(8) %6, i32 noundef %1, i1 noundef zeroext %12)
          to label %13 unwind label %72

13:                                               ; preds = %11
  call void @_ZN5osgeo4proj4util11PropertyMapD1Ev(ptr noundef nonnull align 8 dereferenceable(8) %6) #27
  %.val = load ptr, ptr %5, align 8
  %14 = getelementptr inbounds i8, ptr %5, i64 8
  %.val16 = load ptr, ptr %14, align 8
  call void @llvm.lifetime.start.p0(i64 16, ptr nonnull %4)
  %15 = icmp eq ptr %.val, null
  br i1 %15, label %21, label %16

16:                                               ; preds = %13
  %17 = load ptr, ptr %.val, align 8
  %18 = getelementptr i8, ptr %17, i64 -24
  %19 = load i64, ptr %18, align 8
  %20 = getelementptr inbounds i8, ptr %.val, i64 %19
  br label %21

21:                                               ; preds = %16, %13
  %22 = phi ptr [ %20, %16 ], [ null, %13 ]
  store ptr %22, ptr %4, align 8
  %23 = getelementptr inbounds i8, ptr %4, i64 8
  store ptr %.val16, ptr %23, align 8
  %.not.i.i.i.i.i.i = icmp eq ptr %.val16, null
  br i1 %.not.i.i.i.i.i.i, label %_ZN5osgeo4proj4util15BaseObjectNNPtrC2INS0_9operation10ConversionEEERKN7dropbox6oxygen2nnISt10shared_ptrIT_EEE.exit.i, label %24

24:                                               ; preds = %21
  %25 = getelementptr inbounds i8, ptr %.val16, i64 8
  %26 = load i8, ptr @__libc_single_threaded, align 1
  %.not.i.i.i.i.i.i.i = icmp eq i8 %26, 0
  br i1 %.not.i.i.i.i.i.i.i, label %30, label %27

27:                                               ; preds = %24
  %28 = load i32, ptr %25, align 4
  %29 = add nsw i32 %28, 1
  store i32 %29, ptr %25, align 4
  br label %_ZN5osgeo4proj4util15BaseObjectNNPtrC2INS0_9operation10ConversionEEERKN7dropbox6oxygen2nnISt10shared_ptrIT_EEE.exit.i

30:                                               ; preds = %24
  %31 = atomicrmw volatile add ptr %25, i32 1 acq_rel, align 4
  br label %_ZN5osgeo4proj4util15BaseObjectNNPtrC2INS0_9operation10ConversionEEERKN7dropbox6oxygen2nnISt10shared_ptrIT_EEE.exit.i

_ZN5osgeo4proj4util15BaseObjectNNPtrC2INS0_9operation10ConversionEEERKN7dropbox6oxygen2nnISt10shared_ptrIT_EEE.exit.i: ; preds = %30, %27, %21
  %32 = invoke noundef ptr @_Z13pj_obj_createP6pj_ctxRKN5osgeo4proj4util15BaseObjectNNPtrE(ptr noundef %.013, ptr noundef nonnull align 8 dereferenceable(16) %4)
          to label %34 unwind label %.body

.body:                                            ; preds = %_ZN5osgeo4proj4util15BaseObjectNNPtrC2INS0_9operation10ConversionEEERKN7dropbox6oxygen2nnISt10shared_ptrIT_EEE.exit.i
  %33 = landingpad { ptr, i32 }
          cleanup
          catch ptr @_ZTISt9exception
  call void @_ZN5osgeo4proj4util15BaseObjectNNPtrD1Ev(ptr noundef nonnull align 8 dereferenceable(16) %4) #27
  call void @_ZN7dropbox6oxygen2nnISt10shared_ptrIN5osgeo4proj9operation10ConversionEEED2Ev(ptr noundef nonnull align 8 dereferenceable(16) %5) #27
  br label %74

34:                                               ; preds = %_ZN5osgeo4proj4util15BaseObjectNNPtrC2INS0_9operation10ConversionEEERKN7dropbox6oxygen2nnISt10shared_ptrIT_EEE.exit.i
  call void @_ZN5osgeo4proj4util15BaseObjectNNPtrD1Ev(ptr noundef nonnull align 8 dereferenceable(16) %4) #27
  call void @llvm.lifetime.end.p0(i64 16, ptr nonnull %4)
  %35 = load ptr, ptr %14, align 8
  %.not.i.i.i.i = icmp eq ptr %35, null
  br i1 %.not.i.i.i.i, label %_ZN7dropbox6oxygen2nnISt10shared_ptrIN5osgeo4proj9operation10ConversionEEED2Ev.exit, label %36

36:                                               ; preds = %34
  %37 = getelementptr inbounds i8, ptr %35, i64 8
  %38 = load atomic i64, ptr %37 acquire, align 8
  %39 = icmp eq i64 %38, 4294967297
  %40 = trunc i64 %38 to i32
  br i1 %39, label %41, label %46

41:                                               ; preds = %36
  store i32 0, ptr %37, align 8
  %42 = getelementptr inbounds i8, ptr %35, i64 12
  store i32 0, ptr %42, align 4
  %43 = load ptr, ptr %35, align 8
  %44 = getelementptr inbounds i8, ptr %43, i64 16
  %45 = load ptr, ptr %44, align 8
  call void %45(ptr noundef nonnull align 8 dereferenceable(16) %35) #27
  br label %_ZNSt16_Sp_counted_baseILN9__gnu_cxx12_Lock_policyE2EE24_M_release_last_use_coldEv.exit.sink.split.i.i.i.i.i

46:                                               ; preds = %36
  %47 = load i8, ptr @__libc_single_threaded, align 1
  %.not.i.i.i.i.i = icmp eq i8 %47, 0
  br i1 %.not.i.i.i.i.i, label %50, label %48

48:                                               ; preds = %46
  %49 = add nsw i32 %40, -1
  store i32 %49, ptr %37, align 4
  br label %52

50:                                               ; preds = %46
  %51 = atomicrmw volatile add ptr %37, i32 -1 acq_rel, align 4
  br label %52

52:                                               ; preds = %50, %48
  %.0.i.i.i.i.i = phi i32 [ %40, %48 ], [ %51, %50 ]
  %53 = icmp eq i32 %.0.i.i.i.i.i, 1
  br i1 %53, label %54, label %_ZN7dropbox6oxygen2nnISt10shared_ptrIN5osgeo4proj9operation10ConversionEEED2Ev.exit

54:                                               ; preds = %52
  %55 = load ptr, ptr %35, align 8
  %56 = getelementptr inbounds i8, ptr %55, i64 16
  %57 = load ptr, ptr %56, align 8
  call void %57(ptr noundef nonnull align 8 dereferenceable(16) %35) #27
  %58 = getelementptr inbounds i8, ptr %35, i64 12
  %59 = load i8, ptr @__libc_single_threaded, align 1
  %.not.i.i.i.i.i.i.i17 = icmp eq i8 %59, 0
  br i1 %.not.i.i.i.i.i.i.i17, label %63, label %60

60:                                               ; preds = %54
  %61 = load i32, ptr %58, align 4
  %62 = add nsw i32 %61, -1
  store i32 %62, ptr %58, align 4
  br label %65

63:                                               ; preds = %54
  %64 = atomicrmw volatile add ptr %58, i32 -1 acq_rel, align 4
  br label %65

65:                                               ; preds = %63, %60
  %.0.i.i.i.i.i.i.i = phi i32 [ %61, %60 ], [ %64, %63 ]
  %66 = icmp eq i32 %.0.i.i.i.i.i.i.i, 1
  br i1 %66, label %_ZNSt16_Sp_counted_baseILN9__gnu_cxx12_Lock_policyE2EE24_M_release_last_use_coldEv.exit.sink.split.i.i.i.i.i, label %_ZN7dropbox6oxygen2nnISt10shared_ptrIN5osgeo4proj9operation10ConversionEEED2Ev.exit

_ZNSt16_Sp_counted_baseILN9__gnu_cxx12_Lock_policyE2EE24_M_release_last_use_coldEv.exit.sink.split.i.i.i.i.i: ; preds = %65, %41
  %67 = load ptr, ptr %35, align 8
  %68 = getelementptr inbounds i8, ptr %67, i64 24
  %69 = load ptr, ptr %68, align 8
  call void %69(ptr noundef nonnull align 8 dereferenceable(16) %35) #27
  br label %_ZN7dropbox6oxygen2nnISt10shared_ptrIN5osgeo4proj9operation10ConversionEEED2Ev.exit

70:                                               ; preds = %10
  %71 = landingpad { ptr, i32 }
          catch ptr @_ZTISt9exception
  br label %74

72:                                               ; preds = %11
  %73 = landingpad { ptr, i32 }
          cleanup
          catch ptr @_ZTISt9exception
  call void @_ZN5osgeo4proj4util11PropertyMapD1Ev(ptr noundef nonnull align 8 dereferenceable(8) %6) #27
  br label %74

74:                                               ; preds = %.body, %72, %70
  %.pn = phi { ptr, i32 } [ %33, %.body ], [ %73, %72 ], [ %71, %70 ]
  %.010 = extractvalue { ptr, i32 } %.pn, 1
  %75 = call i32 @llvm.eh.typeid.for(ptr nonnull @_ZTISt9exception) #27
  %76 = icmp eq i32 %.010, %75
  br i1 %76, label %77, label %86

77:                                               ; preds = %74
  %.011 = extractvalue { ptr, i32 } %.pn, 0
  %78 = call ptr @__cxa_begin_catch(ptr %.011) #27
  %79 = load ptr, ptr %78, align 8
  %80 = getelementptr inbounds i8, ptr %79, i64 16
  %81 = load ptr, ptr %80, align 8
  %82 = call noundef ptr %81(ptr noundef nonnull align 8 dereferenceable(8) %78) #27
  invoke fastcc void @_ZL14proj_log_errorP6pj_ctxPKcS2_(ptr noundef %.013, ptr noundef nonnull @__FUNCTION__.proj_create_conversion_utm, ptr noundef %82)
          to label %83 unwind label %84

83:                                               ; preds = %77
  call void @__cxa_end_catch()
  br label %_ZN7dropbox6oxygen2nnISt10shared_ptrIN5osgeo4proj9operation10ConversionEEED2Ev.exit

84:                                               ; preds = %77
  %85 = landingpad { ptr, i32 }
          cleanup
  invoke void @__cxa_end_catch()
          to label %86 unwind label %87

_ZN7dropbox6oxygen2nnISt10shared_ptrIN5osgeo4proj9operation10ConversionEEED2Ev.exit: ; preds = %_ZNSt16_Sp_counted_baseILN9__gnu_cxx12_Lock_policyE2EE24_M_release_last_use_coldEv.exit.sink.split.i.i.i.i.i, %65, %52, %34, %83
  %.0 = phi ptr [ null, %83 ], [ %32, %34 ], [ %32, %52 ], [ %32, %65 ], [ %32, %_ZNSt16_Sp_counted_baseILN9__gnu_cxx12_Lock_policyE2EE24_M_release_last_use_coldEv.exit.sink.split.i.i.i.i.i ]
  ret ptr %.0

86:                                               ; preds = %84, %74
  %.merged = phi { ptr, i32 } [ %85, %84 ], [ %.pn, %74 ]
  resume { ptr, i32 } %.merged

87:                                               ; preds = %84
  %88 = landingpad { ptr, i32 }
          catch ptr null
  %89 = extractvalue { ptr, i32 } %88, 0
  call void @__clang_call_terminate(ptr %89) #31
  unreachable
}